target datalayout = "e-m:e-p270:32:32-p271:32:32-p272:64:64-i64:64-i128:128-f80:128-n8:16:32:64-S128"
target triple = "x86_64-pc-linux-gnu"

%union.H5O_fheap_id_t = type { i64 }
%struct.H5A_bt2_ud_ins_t = type { %struct.H5A_bt2_ud_common_t, %union.H5O_fheap_id_t }
%struct.H5A_bt2_ud_common_t = type { ptr, ptr, ptr, ptr, i32, i8, i32, ptr, ptr }
%struct.H5A_dense_bt2_corder_rec_t = type { %union.H5O_fheap_id_t, i8, i32 }

@H5A_init_g = external global i8, align 1
@H5_libterm_g = external global i8, align 1

; Function Attrs: nounwind uwtable
define internal i32 @H5A__dense_btree2_corder_store(ptr noundef %0, ptr noundef %1) #0 {
  %3 = alloca ptr, align 8
  %4 = alloca ptr, align 8
  %5 = alloca ptr, align 8
  %6 = alloca ptr, align 8
  store ptr %0, ptr %3, align 8, !tbaa !3
  store ptr %1, ptr %4, align 8, !tbaa !3
  call void @llvm.lifetime.start.p0(i64 8, ptr %5) #7
  %7 = load ptr, ptr %4, align 8, !tbaa !3
  store ptr %7, ptr %5, align 8, !tbaa !7
  call void @llvm.lifetime.start.p0(i64 8, ptr %6) #7
  %8 = load ptr, ptr %3, align 8, !tbaa !3
  store ptr %8, ptr %6, align 8, !tbaa !55
  %9 = load i8, ptr @H5A_init_g, align 1, !tbaa !11, !range !13, !noundef !14
  %10 = trunc i8 %9 to i1
  br i1 %10, label %15, label %11

11:                                               ; preds = %2
  %12 = load i8, ptr @H5_libterm_g, align 1, !tbaa !11, !range !13, !noundef !14
  %13 = trunc i8 %12 to i1
  %14 = xor i1 %13, true
  br label %15

15:                                               ; preds = %11, %2
  %16 = phi i1 [ true, %2 ], [ %14, %11 ]
  %17 = xor i1 %16, true
  %18 = xor i1 %17, true
  %19 = zext i1 %18 to i32
  %20 = sext i32 %19 to i64
  %21 = call i64 @llvm.expect.i64(i64 %20, i64 1)
  %22 = icmp ne i64 %21, 0
  br i1 %22, label %23, label %40

23:                                               ; preds = %15
  %24 = load ptr, ptr %6, align 8, !tbaa !55
  %25 = getelementptr inbounds nuw %struct.H5A_dense_bt2_corder_rec_t, ptr %24, i32 0, i32 0
  %26 = load ptr, ptr %5, align 8, !tbaa !7
  %27 = getelementptr inbounds nuw %struct.H5A_bt2_ud_ins_t, ptr %26, i32 0, i32 1
  call void @llvm.memcpy.p0.p0.i64(ptr align 8 %25, ptr align 8 %27, i64 8, i1 false), !tbaa.struct !15
  %28 = load ptr, ptr %5, align 8, !tbaa !7
  %29 = getelementptr inbounds nuw %struct.H5A_bt2_ud_ins_t, ptr %28, i32 0, i32 0
  %30 = getelementptr inbounds nuw %struct.H5A_bt2_ud_common_t, ptr %29, i32 0, i32 5
  %31 = load i8, ptr %30, align 4, !tbaa !17
  %32 = load ptr, ptr %6, align 8, !tbaa !55
  %33 = getelementptr inbounds nuw %struct.H5A_dense_bt2_corder_rec_t, ptr %32, i32 0, i32 1
  store i8 %31, ptr %33, align 8, !tbaa !57
  %34 = load ptr, ptr %5, align 8, !tbaa !7
  %35 = getelementptr inbounds nuw %struct.H5A_bt2_ud_ins_t, ptr %34, i32 0, i32 0
  %36 = getelementptr inbounds nuw %struct.H5A_bt2_ud_common_t, ptr %35, i32 0, i32 6
  %37 = load i32, ptr %36, align 8, !tbaa !26
  %38 = load ptr, ptr %6, align 8, !tbaa !55
  %39 = getelementptr inbounds nuw %struct.H5A_dense_bt2_corder_rec_t, ptr %38, i32 0, i32 2
  store i32 %37, ptr %39, align 4, !tbaa !59
  br label %40

40:                                               ; preds = %23, %15
  call void @llvm.lifetime.end.p0(i64 8, ptr %6) #7
  call void @llvm.lifetime.end.p0(i64 8, ptr %5) #7
  ret i32 0
}